target datalayout = "e-m:e-p270:32:32-p271:32:32-p272:64:64-i64:64-i128:128-f80:128-n8:16:32:64-S128"
target triple = "x86_64-pc-linux-gnu"

%"class.glslang::TParseVersions" = type { ptr, i8, i32, ptr, i32, i32, %"struct.glslang::SpvVersion", ptr, %"class.glslang::TMap", %"class.glslang::TMap.1", %"class.glslang::TVector", i32, i32, ptr }
%"struct.glslang::SpvVersion" = type <{ i32, i32, i32, i32, i8, [3 x i8] }>
%"class.glslang::TMap" = type { %"class.std::map" }
%"class.std::map" = type { %"class.std::_Rb_tree" }
%"class.std::_Rb_tree" = type { %"struct.std::_Rb_tree<std::__cxx11::basic_string<char, std::char_traits<char>, glslang::pool_allocator<char>>, std::pair<const std::__cxx11::basic_string<char, std::char_traits<char>, glslang::pool_allocator<char>>, glslang::TExtensionBehavior>, std::_Select1st<std::pair<const std::__cxx11::basic_string<char, std::char_traits<char>, glslang::pool_allocator<char>>, glslang::TExtensionBehavior>>, std::less<std::__cxx11::basic_string<char, std::char_traits<char>, glslang::pool_allocator<char>>>, glslang::pool_allocator<std::pair<const std::__cxx11::basic_string<char, std::char_traits<char>, glslang::pool_allocator<char>>, glslang::TExtensionBehavior>>>::_Rb_tree_impl" }
%"struct.std::_Rb_tree<std::__cxx11::basic_string<char, std::char_traits<char>, glslang::pool_allocator<char>>, std::pair<const std::__cxx11::basic_string<char, std::char_traits<char>, glslang::pool_allocator<char>>, glslang::TExtensionBehavior>, std::_Select1st<std::pair<const std::__cxx11::basic_string<char, std::char_traits<char>, glslang::pool_allocator<char>>, glslang::TExtensionBehavior>>, std::less<std::__cxx11::basic_string<char, std::char_traits<char>, glslang::pool_allocator<char>>>, glslang::pool_allocator<std::pair<const std::__cxx11::basic_string<char, std::char_traits<char>, glslang::pool_allocator<char>>, glslang::TExtensionBehavior>>>::_Rb_tree_impl" = type { %"class.glslang::pool_allocator.0", %"struct.std::_Rb_tree_key_compare", %"struct.std::_Rb_tree_header" }
%"class.glslang::pool_allocator.0" = type { ptr }
%"struct.std::_Rb_tree_key_compare" = type { %"struct.std::less" }
%"struct.std::less" = type { i8 }
%"struct.std::_Rb_tree_header" = type { %"struct.std::_Rb_tree_node_base", i64 }
%"struct.std::_Rb_tree_node_base" = type { i32, ptr, ptr, ptr }
%"class.glslang::TMap.1" = type { %"class.std::map.2" }
%"class.std::map.2" = type { %"class.std::_Rb_tree.3" }
%"class.std::_Rb_tree.3" = type { %"struct.std::_Rb_tree<std::__cxx11::basic_string<char, std::char_traits<char>, glslang::pool_allocator<char>>, std::pair<const std::__cxx11::basic_string<char, std::char_traits<char>, glslang::pool_allocator<char>>, unsigned int>, std::_Select1st<std::pair<const std::__cxx11::basic_string<char, std::char_traits<char>, glslang::pool_allocator<char>>, unsigned int>>, std::less<std::__cxx11::basic_string<char, std::char_traits<char>, glslang::pool_allocator<char>>>, glslang::pool_allocator<std::pair<const std::__cxx11::basic_string<char, std::char_traits<char>, glslang::pool_allocator<char>>, unsigned int>>>::_Rb_tree_impl" }
%"struct.std::_Rb_tree<std::__cxx11::basic_string<char, std::char_traits<char>, glslang::pool_allocator<char>>, std::pair<const std::__cxx11::basic_string<char, std::char_traits<char>, glslang::pool_allocator<char>>, unsigned int>, std::_Select1st<std::pair<const std::__cxx11::basic_string<char, std::char_traits<char>, glslang::pool_allocator<char>>, unsigned int>>, std::less<std::__cxx11::basic_string<char, std::char_traits<char>, glslang::pool_allocator<char>>>, glslang::pool_allocator<std::pair<const std::__cxx11::basic_string<char, std::char_traits<char>, glslang::pool_allocator<char>>, unsigned int>>>::_Rb_tree_impl" = type { %"class.glslang::pool_allocator.4", %"struct.std::_Rb_tree_key_compare", %"struct.std::_Rb_tree_header" }
%"class.glslang::pool_allocator.4" = type { ptr }
%"class.glslang::TQualifier" = type <{ ptr, i64, i8, [3 x i8], i32, i32, i64, i64, i8, i8, i8, i8, i8, [3 x i8], i32, i8, i8, i8, i8, i32, ptr, i8, i8, [6 x i8] }>
%"class.glslang::TVector" = type { %"class.std::vector" }
%"class.std::vector" = type { %"struct.std::_Vector_base" }
%"struct.std::_Vector_base" = type { %"struct.std::_Vector_base<std::__cxx11::basic_string<char, std::char_traits<char>, glslang::pool_allocator<char>>, glslang::pool_allocator<std::__cxx11::basic_string<char, std::char_traits<char>, glslang::pool_allocator<char>>>>::_Vector_impl" }
%"struct.std::_Vector_base<std::__cxx11::basic_string<char, std::char_traits<char>, glslang::pool_allocator<char>>, glslang::pool_allocator<std::__cxx11::basic_string<char, std::char_traits<char>, glslang::pool_allocator<char>>>>::_Vector_impl" = type { %"class.glslang::pool_allocator.5", %"struct.std::_Vector_base<std::__cxx11::basic_string<char, std::char_traits<char>, glslang::pool_allocator<char>>, glslang::pool_allocator<std::__cxx11::basic_string<char, std::char_traits<char>, glslang::pool_allocator<char>>>>::_Vector_impl_data" }
%"class.glslang::pool_allocator.5" = type { ptr }
%"struct.std::_Vector_base<std::__cxx11::basic_string<char, std::char_traits<char>, glslang::pool_allocator<char>>, glslang::pool_allocator<std::__cxx11::basic_string<char, std::char_traits<char>, glslang::pool_allocator<char>>>>::_Vector_impl_data" = type { ptr, ptr, ptr }
%class.anon.314 = type { ptr }

; Function Attrs: mustprogress nounwind uwtable
define noundef zeroext i1 @_ZN7glslang16HlslParseContext20isClipOrCullDistanceENS_16TBuiltInVariableE(i32 noundef %0) #0 align 2 {
  %2 = alloca i32, align 4
  store i32 %0, ptr %2, align 4
  %3 = load i32, ptr %2, align 4
  %4 = icmp eq i32 %3, 33
  br i1 %4, label %8, label %5

5:                                                ; preds = %1
  %6 = load i32, ptr %2, align 4
  %7 = icmp eq i32 %6, 34
  br label %8

8:                                                ; preds = %5, %1
  %9 = phi i1 [ true, %1 ], [ %7, %5 ]
  ret i1 %9
}

; Function Attrs: mustprogress nounwind uwtable
define linkonce_odr noundef zeroext i1 @_ZN7glslang16HlslParseContext20isClipOrCullDistanceERKNS_10TQualifierE(ptr noundef nonnull align 8 dereferenceable(80) %0) #0 comdat align 2 {
  %2 = alloca ptr, align 8
  store ptr %0, ptr %2, align 8
  %3 = load ptr, ptr %2, align 8
  %4 = getelementptr inbounds %"class.glslang::TQualifier", ptr %3, i32 0, i32 1
  %5 = load i64, ptr %4, align 8
  %6 = lshr i64 %5, 7
  %7 = and i64 %6, 511
  %8 = trunc i64 %7 to i32
  %9 = call noundef zeroext i1 @_ZN7glslang16HlslParseContext20isClipOrCullDistanceENS_16TBuiltInVariableE(i32 noundef %8)
  ret i1 %9
}

; Function Attrs: mustprogress nounwind uwtable
define linkonce_odr noundef zeroext i1 @_ZNK7glslang10TQualifier12isPipeOutputEv(ptr noundef nonnull align 8 dereferenceable(80) %0) #0 comdat align 2 {
  %2 = alloca i1, align 1
  %3 = alloca ptr, align 8
  store ptr %0, ptr %3, align 8
  %4 = load ptr, ptr %3, align 8
  %5 = getelementptr inbounds %"class.glslang::TQualifier", ptr %4, i32 0, i32 1
  %6 = load i64, ptr %5, align 8
  %7 = and i64 %6, 127
  %8 = trunc i64 %7 to i32
  switch i32 %8, label %10 [
    i32 22, label %9
    i32 23, label %9
    i32 24, label %9
    i32 4, label %9
    i32 28, label %9
    i32 29, label %9
    i32 30, label %9
  ]

9:                                                ; preds = %1, %1, %1, %1, %1, %1, %1
  store i1 true, ptr %2, align 1
  br label %11

10:                                               ; preds = %1
  store i1 false, ptr %2, align 1
  br label %11

11:                                               ; preds = %10, %9
  %12 = load i1, ptr %2, align 1
  ret i1 %12
}

; Function Attrs: mustprogress nounwind uwtable
define linkonce_odr noundef zeroext i1 @_ZNK7glslang10TQualifier11isPipeInputEv(ptr noundef nonnull align 8 dereferenceable(80) %0) #0 comdat align 2 {
  %2 = alloca i1, align 1
  %3 = alloca ptr, align 8
  store ptr %0, ptr %3, align 8
  %4 = load ptr, ptr %3, align 8
  %5 = getelementptr inbounds %"class.glslang::TQualifier", ptr %4, i32 0, i32 1
  %6 = load i64, ptr %5, align 8
  %7 = and i64 %6, 127
  %8 = trunc i64 %7 to i32
  switch i32 %8, label %10 [
    i32 3, label %9
    i32 26, label %9
    i32 27, label %9
    i32 25, label %9
    i32 20, label %9
    i32 21, label %9
  ]

9:                                                ; preds = %1, %1, %1, %1, %1, %1
  store i1 true, ptr %2, align 1
  br label %11

10:                                               ; preds = %1
  store i1 false, ptr %2, align 1
  br label %11

11:                                               ; preds = %10, %9
  %12 = load i1, ptr %2, align 1
  ret i1 %12
}

; Function Attrs: mustprogress nounwind uwtable
define linkonce_odr noundef zeroext i1 @_ZN7glslang16HlslParseContext20isClipOrCullDistanceERKNS_5TTypeE(ptr noundef nonnull align 8 dereferenceable(152) %0) #0 comdat align 2 {
  %2 = alloca ptr, align 8
  store ptr %0, ptr %2, align 8
  %3 = load ptr, ptr %2, align 8
  %4 = load ptr, ptr %3, align 8
  %5 = getelementptr inbounds ptr, ptr %4, i64 11
  %6 = load ptr, ptr %5, align 8
  %7 = call noundef nonnull align 8 dereferenceable(80) ptr %6(ptr noundef nonnull align 8 dereferenceable(152) %3)
  %8 = call noundef zeroext i1 @_ZN7glslang16HlslParseContext20isClipOrCullDistanceERKNS_10TQualifierE(ptr noundef nonnull align 8 dereferenceable(80) %7)
  ret i1 %8
}

; Function Attrs: mustprogress nounwind uwtable
define linkonce_odr noundef zeroext i1 @_ZNK7glslang10TQualifier11isArrayedIoE11EShLanguage(ptr noundef nonnull align 8 dereferenceable(80) %0, i32 noundef %1) #0 comdat align 2 {
  %3 = alloca i1, align 1
  %4 = alloca ptr, align 8
  %5 = alloca i32, align 4
  store ptr %0, ptr %4, align 8
  store i32 %1, ptr %5, align 4
  %6 = load ptr, ptr %4, align 8
  %7 = load i32, ptr %5, align 4
  switch i32 %7, label %60 [
    i32 3, label %8
    i32 1, label %10
    i32 2, label %24
    i32 4, label %34
    i32 13, label %50
  ]

8:                                                ; preds = %2
  %9 = call noundef zeroext i1 @_ZNK7glslang10TQualifier11isPipeInputEv(ptr noundef nonnull align 8 dereferenceable(80) %6)
  store i1 %9, ptr %3, align 1
  br label %61

10:                                               ; preds = %2
  %11 = getelementptr inbounds %"class.glslang::TQualifier", ptr %6, i32 0, i32 1
  %12 = load i64, ptr %11, align 8
  %13 = lshr i64 %12, 44
  %14 = and i64 %13, 1
  %15 = trunc i64 %14 to i1
  br i1 %15, label %22, label %16

16:                                               ; preds = %10
  %17 = call noundef zeroext i1 @_ZNK7glslang10TQualifier11isPipeInputEv(ptr noundef nonnull align 8 dereferenceable(80) %6)
  br i1 %17, label %20, label %18

18:                                               ; preds = %16
  %19 = call noundef zeroext i1 @_ZNK7glslang10TQualifier12isPipeOutputEv(ptr noundef nonnull align 8 dereferenceable(80) %6)
  br label %20

20:                                               ; preds = %18, %16
  %21 = phi i1 [ true, %16 ], [ %19, %18 ]
  br label %22

22:                                               ; preds = %20, %10
  %23 = phi i1 [ false, %10 ], [ %21, %20 ]
  store i1 %23, ptr %3, align 1
  br label %61

24:                                               ; preds = %2
  %25 = getelementptr inbounds %"class.glslang::TQualifier", ptr %6, i32 0, i32 1
  %26 = load i64, ptr %25, align 8
  %27 = lshr i64 %26, 44
  %28 = and i64 %27, 1
  %29 = trunc i64 %28 to i1
  br i1 %29, label %32, label %30

30:                                               ; preds = %24
  %31 = call noundef zeroext i1 @_ZNK7glslang10TQualifier11isPipeInputEv(ptr noundef nonnull align 8 dereferenceable(80) %6)
  br label %32

32:                                               ; preds = %30, %24
  %33 = phi i1 [ false, %24 ], [ %31, %30 ]
  store i1 %33, ptr %3, align 1
  br label %61

34:                                               ; preds = %2
  %35 = getelementptr inbounds %"class.glslang::TQualifier", ptr %6, i32 0, i32 1
  %36 = load i64, ptr %35, align 8
  %37 = lshr i64 %36, 39
  %38 = and i64 %37, 1
  %39 = trunc i64 %38 to i1
  br i1 %39, label %46, label %40

40:                                               ; preds = %34
  %41 = getelementptr inbounds %"class.glslang::TQualifier", ptr %6, i32 0, i32 1
  %42 = load i64, ptr %41, align 8
  %43 = lshr i64 %42, 40
  %44 = and i64 %43, 1
  %45 = trunc i64 %44 to i1
  br i1 %45, label %46, label %48

46:                                               ; preds = %40, %34
  %47 = call noundef zeroext i1 @_ZNK7glslang10TQualifier11isPipeInputEv(ptr noundef nonnull align 8 dereferenceable(80) %6)
  br label %48

48:                                               ; preds = %46, %40
  %49 = phi i1 [ false, %40 ], [ %47, %46 ]
  store i1 %49, ptr %3, align 1
  br label %61

50:                                               ; preds = %2
  %51 = getelementptr inbounds %"class.glslang::TQualifier", ptr %6, i32 0, i32 1
  %52 = load i64, ptr %51, align 8
  %53 = lshr i64 %52, 43
  %54 = and i64 %53, 1
  %55 = trunc i64 %54 to i1
  br i1 %55, label %58, label %56

56:                                               ; preds = %50
  %57 = call noundef zeroext i1 @_ZNK7glslang10TQualifier12isPipeOutputEv(ptr noundef nonnull align 8 dereferenceable(80) %6)
  br label %58

58:                                               ; preds = %56, %50
  %59 = phi i1 [ false, %50 ], [ %57, %56 ]
  store i1 %59, ptr %3, align 1
  br label %61

60:                                               ; preds = %2
  store i1 false, ptr %3, align 1
  br label %61

61:                                               ; preds = %60, %58, %48, %32, %22, %8
  %62 = load i1, ptr %3, align 1
  ret i1 %62
}

; Function Attrs: mustprogress nounwind uwtable
define internal void @"_ZZN7glslang16HlslParseContext19transformEntryPointERKNS_10TSourceLocERNS_9TFunctionERKNS_5TListINS_14TAttributeArgsEEEENK3$_0clERNS_9TVariableE"(ptr noundef nonnull align 8 dereferenceable(8) %0, ptr noundef nonnull align 8 dereferenceable(236) %1) #0 align 2 {
  %3 = alloca ptr, align 8
  %4 = alloca ptr, align 8
  %5 = alloca i8, align 1
  store ptr %0, ptr %3, align 8
  store ptr %1, ptr %4, align 8
  %6 = load ptr, ptr %3, align 8
  %7 = getelementptr inbounds %class.anon.314, ptr %6, i32 0, i32 0
  %8 = load ptr, ptr %7, align 8
  %9 = load ptr, ptr %4, align 8
  %10 = load ptr, ptr %9, align 8
  %11 = getelementptr inbounds ptr, ptr %10, i64 12
  %12 = load ptr, ptr %11, align 8
  %13 = call noundef nonnull align 8 dereferenceable(152) ptr %12(ptr noundef nonnull align 8 dereferenceable(236) %9)
  %14 = load ptr, ptr %13, align 8
  %15 = getelementptr inbounds ptr, ptr %14, i64 37
  %16 = load ptr, ptr %15, align 8
  %17 = call noundef zeroext i1 %16(ptr noundef nonnull align 8 dereferenceable(152) %13)
  br i1 %17, label %18, label %35

18:                                               ; preds = %2
  %19 = load ptr, ptr %4, align 8
  %20 = load ptr, ptr %19, align 8
  %21 = getelementptr inbounds ptr, ptr %20, i64 12
  %22 = load ptr, ptr %21, align 8
  %23 = call noundef nonnull align 8 dereferenceable(152) ptr %22(ptr noundef nonnull align 8 dereferenceable(236) %19)
  %24 = load ptr, ptr %23, align 8
  %25 = getelementptr inbounds ptr, ptr %24, i64 11
  %26 = load ptr, ptr %25, align 8
  %27 = call noundef nonnull align 8 dereferenceable(80) ptr %26(ptr noundef nonnull align 8 dereferenceable(152) %23)
  %28 = getelementptr inbounds %"class.glslang::TParseVersions", ptr %8, i32 0, i32 5
  %29 = load i32, ptr %28, align 4
  %30 = call noundef zeroext i1 @_ZNK7glslang10TQualifier11isArrayedIoE11EShLanguage(ptr noundef nonnull align 8 dereferenceable(80) %27, i32 noundef %29)
  %31 = zext i1 %30 to i8
  store i8 %31, ptr %5, align 1
  %32 = load ptr, ptr %4, align 8
  %33 = load i8, ptr %5, align 1
  %34 = trunc i8 %33 to i1
  call void @_ZN7glslang16HlslParseContext7flattenERKNS_9TVariableEbb(ptr noundef nonnull align 8 dereferenceable(2489) %8, ptr noundef nonnull align 8 dereferenceable(236) %32, i1 noundef zeroext false, i1 noundef zeroext %34)
  br label %35

35:                                               ; preds = %18, %2
  %36 = load ptr, ptr %4, align 8
  %37 = load ptr, ptr %36, align 8
  %38 = getelementptr inbounds ptr, ptr %37, i64 12
  %39 = load ptr, ptr %38, align 8
  %40 = call noundef nonnull align 8 dereferenceable(152) ptr %39(ptr noundef nonnull align 8 dereferenceable(236) %36)
  %41 = call noundef zeroext i1 @_ZN7glslang16HlslParseContext20isClipOrCullDistanceERKNS_5TTypeE(ptr noundef nonnull align 8 dereferenceable(152) %40)
  br i1 %41, label %44, label %42

42:                                               ; preds = %35
  %43 = load ptr, ptr %4, align 8
  call void @_ZN7glslang16HlslParseContext17assignToInterfaceERNS_9TVariableE(ptr noundef nonnull align 8 dereferenceable(2489) %8, ptr noundef nonnull align 8 dereferenceable(236) %43)
  br label %44

44:                                               ; preds = %42, %35
  ret void
}