; Function Attrs: mustprogress nounwind uwtable
define internal fastcc void @"_ZZN7glslang16HlslParseContext19transformEntryPointERKNS_10TSourceLocERNS_9TFunctionERKNS_5TListINS_14TAttributeArgsEEEENK3$_0clERNS_9TVariableE"(ptr %.0.val, ptr noundef nonnull align 8 dereferenceable(236) %0) unnamed_addr #0 align 2 {
  %2 = load ptr, ptr %0, align 8
  %3 = getelementptr inbounds i8, ptr %2, i64 96
  %4 = load ptr, ptr %3, align 8
  %5 = tail call noundef nonnull align 8 dereferenceable(152) ptr %4(ptr noundef nonnull align 8 dereferenceable(236) %0) #24
  %6 = load ptr, ptr %5, align 8
  %7 = getelementptr inbounds i8, ptr %6, i64 296
  %8 = load ptr, ptr %7, align 8
  %9 = tail call noundef zeroext i1 %8(ptr noundef nonnull align 8 dereferenceable(152) %5) #24
  br i1 %9, label %10, label %59

10:                                               ; preds = %1
  %11 = load ptr, ptr %0, align 8
  %12 = getelementptr inbounds i8, ptr %11, i64 96
  %13 = load ptr, ptr %12, align 8
  %14 = tail call noundef nonnull align 8 dereferenceable(152) ptr %13(ptr noundef nonnull align 8 dereferenceable(236) %0) #24
  %15 = load ptr, ptr %14, align 8
  %16 = getelementptr inbounds i8, ptr %15, i64 88
  %17 = load ptr, ptr %16, align 8
  %18 = tail call noundef nonnull align 8 dereferenceable(80) ptr %17(ptr noundef nonnull align 8 dereferenceable(152) %14) #24
  %19 = getelementptr inbounds i8, ptr %.0.val, i64 28
  %20 = load i32, ptr %19, align 4
  switch i32 %20, label %_ZNK7glslang10TQualifier11isArrayedIoE11EShLanguage.exit [
    i32 3, label %21
    i32 1, label %27
    i32 2, label %35
    i32 4, label %43
    i32 13, label %51
  ]

21:                                               ; preds = %10
  %22 = getelementptr inbounds i8, ptr %18, i64 8
  %23 = load i64, ptr %22, align 8
  %24 = trunc i64 %23 to i32
  %25 = and i32 %24, 127
  %26 = icmp ult i32 %25, 28
  br i1 %26, label %switch.lookup, label %_ZNK7glslang10TQualifier11isArrayedIoE11EShLanguage.exit

27:                                               ; preds = %10
  %28 = getelementptr inbounds i8, ptr %18, i64 8
  %29 = load i64, ptr %28, align 8
  %30 = and i64 %29, 17592186044416
  %.not5.i = icmp eq i64 %30, 0
  br i1 %.not5.i, label %31, label %_ZNK7glslang10TQualifier11isArrayedIoE11EShLanguage.exit

31:                                               ; preds = %27
  %32 = trunc i64 %29 to i32
  %33 = and i32 %32, 127
  %34 = icmp ult i32 %33, 31
  br i1 %34, label %switch.lookup1, label %_ZNK7glslang10TQualifier11isArrayedIoE11EShLanguage.exit

35:                                               ; preds = %10
  %36 = getelementptr inbounds i8, ptr %18, i64 8
  %37 = load i64, ptr %36, align 8
  %38 = and i64 %37, 17592186044416
  %.not4.i = icmp eq i64 %38, 0
  br i1 %.not4.i, label %39, label %_ZNK7glslang10TQualifier11isArrayedIoE11EShLanguage.exit

39:                                               ; preds = %35
  %40 = trunc i64 %37 to i32
  %41 = and i32 %40, 127
  %42 = icmp ult i32 %41, 28
  br i1 %42, label %switch.lookup6, label %_ZNK7glslang10TQualifier11isArrayedIoE11EShLanguage.exit

43:                                               ; preds = %10
  %44 = getelementptr inbounds i8, ptr %18, i64 8
  %45 = load i64, ptr %44, align 8
  %46 = and i64 %45, 1649267441664
  %or.cond.i = icmp eq i64 %46, 0
  br i1 %or.cond.i, label %_ZNK7glslang10TQualifier11isArrayedIoE11EShLanguage.exit, label %47

47:                                               ; preds = %43
  %48 = trunc i64 %45 to i32
  %49 = and i32 %48, 127
  %50 = icmp ult i32 %49, 28
  br i1 %50, label %switch.lookup11, label %_ZNK7glslang10TQualifier11isArrayedIoE11EShLanguage.exit

51:                                               ; preds = %10
  %52 = getelementptr inbounds i8, ptr %18, i64 8
  %53 = load i64, ptr %52, align 8
  %54 = and i64 %53, 8796093022208
  %.not.i = icmp eq i64 %54, 0
  br i1 %.not.i, label %55, label %_ZNK7glslang10TQualifier11isArrayedIoE11EShLanguage.exit

55:                                               ; preds = %51
  %56 = trunc i64 %53 to i32
  %57 = and i32 %56, 127
  %58 = icmp ult i32 %57, 31
  br i1 %58, label %switch.lookup16, label %_ZNK7glslang10TQualifier11isArrayedIoE11EShLanguage.exit

switch.lookup:                                    ; preds = %21
  %switch.cast = trunc nuw nsw i32 %25 to i28
  %switch.downshift = lshr i28 -30408696, %switch.cast
  %switch.masked = trunc i28 %switch.downshift to i1
  br label %_ZNK7glslang10TQualifier11isArrayedIoE11EShLanguage.exit

switch.lookup1:                                   ; preds = %31
  %switch.cast2 = trunc nuw nsw i32 %33 to i31
  %switch.downshift4 = lshr i31 -1048552, %switch.cast2
  %switch.masked5 = trunc i31 %switch.downshift4 to i1
  br label %_ZNK7glslang10TQualifier11isArrayedIoE11EShLanguage.exit

switch.lookup6:                                   ; preds = %39
  %switch.cast7 = trunc nuw nsw i32 %41 to i28
  %switch.downshift9 = lshr i28 -30408696, %switch.cast7
  %switch.masked10 = trunc i28 %switch.downshift9 to i1
  br label %_ZNK7glslang10TQualifier11isArrayedIoE11EShLanguage.exit

switch.lookup11:                                  ; preds = %47
  %switch.cast12 = trunc nuw nsw i32 %49 to i28
  %switch.downshift14 = lshr i28 -30408696, %switch.cast12
  %switch.masked15 = trunc i28 %switch.downshift14 to i1
  br label %_ZNK7glslang10TQualifier11isArrayedIoE11EShLanguage.exit

switch.lookup16:                                  ; preds = %55
  %switch.cast17 = trunc nuw nsw i32 %57 to i31
  %switch.downshift19 = lshr i31 -239075312, %switch.cast17
  %switch.masked20 = trunc i31 %switch.downshift19 to i1
  br label %_ZNK7glslang10TQualifier11isArrayedIoE11EShLanguage.exit

_ZNK7glslang10TQualifier11isArrayedIoE11EShLanguage.exit: ; preds = %55, %switch.lookup16, %47, %switch.lookup11, %39, %switch.lookup6, %31, %switch.lookup1, %21, %switch.lookup, %10, %27, %35, %43, %51
  %.0.i = phi i1 [ false, %27 ], [ false, %35 ], [ false, %43 ], [ false, %51 ], [ false, %10 ], [ %switch.masked, %switch.lookup ], [ false, %21 ], [ %switch.masked5, %switch.lookup1 ], [ false, %31 ], [ %switch.masked10, %switch.lookup6 ], [ false, %39 ], [ %switch.masked15, %switch.lookup11 ], [ false, %47 ], [ %switch.masked20, %switch.lookup16 ], [ false, %55 ]
  tail call void @_ZN7glslang16HlslParseContext7flattenERKNS_9TVariableEbb(ptr noundef nonnull align 8 dereferenceable(2489) %.0.val, ptr noundef nonnull align 8 dereferenceable(236) %0, i1 noundef zeroext false, i1 noundef zeroext %.0.i)
  br label %59

59:                                               ; preds = %_ZNK7glslang10TQualifier11isArrayedIoE11EShLanguage.exit, %1
  %60 = load ptr, ptr %0, align 8
  %61 = getelementptr inbounds i8, ptr %60, i64 96
  %62 = load ptr, ptr %61, align 8
  %63 = tail call noundef nonnull align 8 dereferenceable(152) ptr %62(ptr noundef nonnull align 8 dereferenceable(236) %0) #24
  %64 = load ptr, ptr %63, align 8
  %65 = getelementptr inbounds i8, ptr %64, i64 88
  %66 = load ptr, ptr %65, align 8
  %67 = tail call noundef nonnull align 8 dereferenceable(80) ptr %66(ptr noundef nonnull align 8 dereferenceable(152) %63) #24
  %68 = getelementptr inbounds i8, ptr %67, i64 8
  %69 = load i64, ptr %68, align 8
  %70 = trunc i64 %69 to i32
  %71 = lshr i32 %70, 7
  %72 = and i32 %71, 511
  %73 = add nsw i32 %72, -33
  %74 = icmp ult i32 %73, 2
  br i1 %74, label %76, label %75

75:                                               ; preds = %59
  tail call void @_ZN7glslang16HlslParseContext17assignToInterfaceERNS_9TVariableE(ptr noundef nonnull align 8 dereferenceable(2489) %.0.val, ptr noundef nonnull align 8 dereferenceable(236) %0)
  br label %76

76:                                               ; preds = %75, %59
  ret void
}